; ModuleID = '11/90.c'
source_filename = "11/90.c"
target datalayout = "e-m:e-p270:32:32-p271:32:32-p272:64:64-i64:64-f80:128-n8:16:32:64-S128"
target triple = "x86_64-pc-linux-gnu"

@.str = private unnamed_addr constant [7 x i8] c"%d%d%d\00", align 1
@.str.1 = private unnamed_addr constant [3 x i8] c"%d\00", align 1

; Function Attrs: noinline nounwind uwtable
define dso_local i32 @main() #0 {
  %1 = alloca i32, align 4
  %2 = alloca i32, align 4
  %3 = alloca [13 x i32], align 16
  %4 = alloca i32, align 4
  %5 = alloca i32, align 4
  %6 = alloca i32, align 4
  %7 = alloca i32, align 4
  %8 = alloca i32, align 4
  %9 = alloca i32, align 4
  store i32 0, i32* %1, align 4
  store i32 0, i32* %2, align 4
  %10 = getelementptr inbounds [13 x i32], [13 x i32]* %3, i64 0, i64 0
  store i32 0, i32* %10, align 4
  %11 = getelementptr inbounds i32, i32* %10, i64 1
  store i32 31, i32* %11, align 4
  %12 = getelementptr inbounds i32, i32* %11, i64 1
  %13 = load i32, i32* %2, align 4
  %14 = add nsw i32 28, %13
  store i32 %14, i32* %12, align 4
  %15 = getelementptr inbounds i32, i32* %12, i64 1
  store i32 31, i32* %15, align 4
  %16 = getelementptr inbounds i32, i32* %15, i64 1
  store i32 30, i32* %16, align 4
  %17 = getelementptr inbounds i32, i32* %16, i64 1
  store i32 31, i32* %17, align 4
  %18 = getelementptr inbounds i32, i32* %17, i64 1
  store i32 30, i32* %18, align 4
  %19 = getelementptr inbounds i32, i32* %18, i64 1
  store i32 31, i32* %19, align 4
  %20 = getelementptr inbounds i32, i32* %19, i64 1
  store i32 31, i32* %20, align 4
  %21 = getelementptr inbounds i32, i32* %20, i64 1
  store i32 30, i32* %21, align 4
  %22 = getelementptr inbounds i32, i32* %21, i64 1
  store i32 31, i32* %22, align 4
  %23 = getelementptr inbounds i32, i32* %22, i64 1
  store i32 30, i32* %23, align 4
  %24 = getelementptr inbounds i32, i32* %23, i64 1
  store i32 31, i32* %24, align 4
  %25 = call i32 (i8*, ...) @__isoc99_scanf(i8* getelementptr inbounds ([7 x i8], [7 x i8]* @.str, i64 0, i64 0), i32* %4, i32* %5, i32* %6)
  %26 = load i32, i32* %4, align 4
  %27 = srem i32 %26, 4
  %28 = icmp eq i32 %27, 0
  br i1 %28, label %29, label %33

29:                                               ; preds = %0
  %30 = load i32, i32* %4, align 4
  %31 = srem i32 %30, 100
  %32 = icmp ne i32 %31, 0
  br i1 %32, label %37, label %33

33:                                               ; preds = %29, %0
  %34 = load i32, i32* %4, align 4
  %35 = srem i32 %34, 400
  %36 = icmp eq i32 %35, 0
  br i1 %36, label %37, label %38

37:                                               ; preds = %33, %29
  store i32 1, i32* %2, align 4
  br label %38

38:                                               ; preds = %37, %33
  store i32 0, i32* %7, align 4
  store i32 0, i32* %8, align 4
  store i32 0, i32* %9, align 4
  br label %39

39:                                               ; preds = %50, %38
  %40 = load i32, i32* %9, align 4
  %41 = load i32, i32* %5, align 4
  %42 = icmp slt i32 %40, %41
  br i1 %42, label %43, label %53

43:                                               ; preds = %39
  %44 = load i32, i32* %9, align 4
  %45 = sext i32 %44 to i64
  %46 = getelementptr inbounds [13 x i32], [13 x i32]* %3, i64 0, i64 %45
  %47 = load i32, i32* %46, align 4
  %48 = load i32, i32* %7, align 4
  %49 = add nsw i32 %48, %47
  store i32 %49, i32* %7, align 4
  br label %50

50:                                               ; preds = %43
  %51 = load i32, i32* %9, align 4
  %52 = add nsw i32 %51, 1
  store i32 %52, i32* %9, align 4
  br label %39

53:                                               ; preds = %39
  %54 = load i32, i32* %7, align 4
  %55 = load i32, i32* %6, align 4
  %56 = add nsw i32 %54, %55
  store i32 %56, i32* %8, align 4
  %57 = load i32, i32* %8, align 4
  %58 = call i32 (i8*, ...) @printf(i8* getelementptr inbounds ([3 x i8], [3 x i8]* @.str.1, i64 0, i64 0), i32 %57)
  ret i32 0
}

declare dso_local i32 @__isoc99_scanf(i8*, ...) #1

declare dso_local i32 @printf(i8*, ...) #1


!llvm.module.flags = !{!0}
!llvm.ident = !{!1}

!0 = !{i32 1, !"wchar_size", i32 4}
!1 = !{!"clang version 10.0.0-4ubuntu1 "}
