; ModuleID = 'source-C-CXX/10/90.c'
source_filename = "source-C-CXX/10/90.c"
target datalayout = "e-m:e-p270:32:32-p271:32:32-p272:64:64-i64:64-f80:128-n8:16:32:64-S128"
target triple = "x86_64-pc-linux-gnu"

@.str = private unnamed_addr constant [7 x i8] c"%d%d%d\00", align 1
@.str.1 = private unnamed_addr constant [3 x i8] c"%d\00", align 1

; Function Attrs: nofree nounwind sspstrong uwtable
define dso_local i32 @main() local_unnamed_addr #0 {
  %1 = alloca [13 x i32], align 16
  %2 = alloca i32, align 4
  %3 = alloca i32, align 4
  %4 = alloca i32, align 4
  %5 = bitcast [13 x i32]* %1 to i8*
  call void @llvm.lifetime.start.p0i8(i64 52, i8* nonnull %5) #4
  %6 = getelementptr inbounds [13 x i32], [13 x i32]* %1, i64 0, i64 1
  %7 = bitcast i32* %6 to <4 x i32>*
  store <4 x i32> <i32 31, i32 28, i32 31, i32 30>, <4 x i32>* %7, align 4, !tbaa !5
  %8 = getelementptr inbounds [13 x i32], [13 x i32]* %1, i64 0, i64 5
  %9 = bitcast i32* %8 to <4 x i32>*
  store <4 x i32> <i32 31, i32 30, i32 31, i32 31>, <4 x i32>* %9, align 4, !tbaa !5
  %10 = getelementptr inbounds [13 x i32], [13 x i32]* %1, i64 0, i64 9
  %11 = bitcast i32* %10 to <4 x i32>*
  store <4 x i32> <i32 30, i32 31, i32 30, i32 31>, <4 x i32>* %11, align 4, !tbaa !5
  %12 = bitcast i32* %2 to i8*
  call void @llvm.lifetime.start.p0i8(i64 4, i8* nonnull %12) #4
  %13 = bitcast i32* %3 to i8*
  call void @llvm.lifetime.start.p0i8(i64 4, i8* nonnull %13) #4
  %14 = bitcast i32* %4 to i8*
  call void @llvm.lifetime.start.p0i8(i64 4, i8* nonnull %14) #4
  %15 = call i32 (i8*, ...) @__isoc99_scanf(i8* getelementptr inbounds ([7 x i8], [7 x i8]* @.str, i64 0, i64 0), i32* nonnull %2, i32* nonnull %3, i32* nonnull %4)
  %16 = load i32, i32* %3, align 4, !tbaa !5
  %17 = icmp sgt i32 %16, 0
  br i1 %17, label %18, label %119

18:                                               ; preds = %0
  %19 = zext i32 %16 to i64
  %20 = icmp eq i32 %16, 1
  br i1 %20, label %119, label %21, !llvm.loop !9

21:                                               ; preds = %18
  %22 = add nsw i64 %19, -1
  %23 = icmp ult i64 %22, 8
  br i1 %23, label %108, label %24

24:                                               ; preds = %21
  %25 = and i64 %22, -8
  %26 = or i64 %25, 1
  %27 = add nsw i64 %25, -8
  %28 = lshr exact i64 %27, 3
  %29 = add nuw nsw i64 %28, 1
  %30 = and i64 %29, 3
  %31 = icmp ult i64 %27, 24
  br i1 %31, label %78, label %32

32:                                               ; preds = %24
  %33 = and i64 %29, 4611686018427387900
  br label %34

34:                                               ; preds = %34, %32
  %35 = phi i64 [ 0, %32 ], [ %75, %34 ]
  %36 = phi <4 x i32> [ zeroinitializer, %32 ], [ %73, %34 ]
  %37 = phi <4 x i32> [ zeroinitializer, %32 ], [ %74, %34 ]
  %38 = phi i64 [ %33, %32 ], [ %76, %34 ]
  %39 = or i64 %35, 1
  %40 = getelementptr inbounds [13 x i32], [13 x i32]* %1, i64 0, i64 %39
  %41 = bitcast i32* %40 to <4 x i32>*
  %42 = load <4 x i32>, <4 x i32>* %41, align 4, !tbaa !5
  %43 = getelementptr inbounds i32, i32* %40, i64 4
  %44 = bitcast i32* %43 to <4 x i32>*
  %45 = load <4 x i32>, <4 x i32>* %44, align 4, !tbaa !5
  %46 = add <4 x i32> %42, %36
  %47 = add <4 x i32> %45, %37
  %48 = or i64 %35, 9
  %49 = getelementptr inbounds [13 x i32], [13 x i32]* %1, i64 0, i64 %48
  %50 = bitcast i32* %49 to <4 x i32>*
  %51 = load <4 x i32>, <4 x i32>* %50, align 4, !tbaa !5
  %52 = getelementptr inbounds i32, i32* %49, i64 4
  %53 = bitcast i32* %52 to <4 x i32>*
  %54 = load <4 x i32>, <4 x i32>* %53, align 4, !tbaa !5
  %55 = add <4 x i32> %51, %46
  %56 = add <4 x i32> %54, %47
  %57 = or i64 %35, 17
  %58 = getelementptr inbounds [13 x i32], [13 x i32]* %1, i64 0, i64 %57
  %59 = bitcast i32* %58 to <4 x i32>*
  %60 = load <4 x i32>, <4 x i32>* %59, align 4, !tbaa !5
  %61 = getelementptr inbounds i32, i32* %58, i64 4
  %62 = bitcast i32* %61 to <4 x i32>*
  %63 = load <4 x i32>, <4 x i32>* %62, align 4, !tbaa !5
  %64 = add <4 x i32> %60, %55
  %65 = add <4 x i32> %63, %56
  %66 = or i64 %35, 25
  %67 = getelementptr inbounds [13 x i32], [13 x i32]* %1, i64 0, i64 %66
  %68 = bitcast i32* %67 to <4 x i32>*
  %69 = load <4 x i32>, <4 x i32>* %68, align 4, !tbaa !5
  %70 = getelementptr inbounds i32, i32* %67, i64 4
  %71 = bitcast i32* %70 to <4 x i32>*
  %72 = load <4 x i32>, <4 x i32>* %71, align 4, !tbaa !5
  %73 = add <4 x i32> %69, %64
  %74 = add <4 x i32> %72, %65
  %75 = add nuw i64 %35, 32
  %76 = add i64 %38, -4
  %77 = icmp eq i64 %76, 0
  br i1 %77, label %78, label %34, !llvm.loop !11

78:                                               ; preds = %34, %24
  %79 = phi <4 x i32> [ undef, %24 ], [ %73, %34 ]
  %80 = phi <4 x i32> [ undef, %24 ], [ %74, %34 ]
  %81 = phi i64 [ 0, %24 ], [ %75, %34 ]
  %82 = phi <4 x i32> [ zeroinitializer, %24 ], [ %73, %34 ]
  %83 = phi <4 x i32> [ zeroinitializer, %24 ], [ %74, %34 ]
  %84 = icmp eq i64 %30, 0
  br i1 %84, label %102, label %85

85:                                               ; preds = %78, %85
  %86 = phi i64 [ %99, %85 ], [ %81, %78 ]
  %87 = phi <4 x i32> [ %97, %85 ], [ %82, %78 ]
  %88 = phi <4 x i32> [ %98, %85 ], [ %83, %78 ]
  %89 = phi i64 [ %100, %85 ], [ %30, %78 ]
  %90 = or i64 %86, 1
  %91 = getelementptr inbounds [13 x i32], [13 x i32]* %1, i64 0, i64 %90
  %92 = bitcast i32* %91 to <4 x i32>*
  %93 = load <4 x i32>, <4 x i32>* %92, align 4, !tbaa !5
  %94 = getelementptr inbounds i32, i32* %91, i64 4
  %95 = bitcast i32* %94 to <4 x i32>*
  %96 = load <4 x i32>, <4 x i32>* %95, align 4, !tbaa !5
  %97 = add <4 x i32> %93, %87
  %98 = add <4 x i32> %96, %88
  %99 = add nuw i64 %86, 8
  %100 = add i64 %89, -1
  %101 = icmp eq i64 %100, 0
  br i1 %101, label %102, label %85, !llvm.loop !13

102:                                              ; preds = %85, %78
  %103 = phi <4 x i32> [ %79, %78 ], [ %97, %85 ]
  %104 = phi <4 x i32> [ %80, %78 ], [ %98, %85 ]
  %105 = add <4 x i32> %104, %103
  %106 = call i32 @llvm.vector.reduce.add.v4i32(<4 x i32> %105)
  %107 = icmp eq i64 %22, %25
  br i1 %107, label %119, label %108

108:                                              ; preds = %21, %102
  %109 = phi i64 [ 1, %21 ], [ %26, %102 ]
  %110 = phi i32 [ 0, %21 ], [ %106, %102 ]
  br label %111

111:                                              ; preds = %108, %111
  %112 = phi i64 [ %117, %111 ], [ %109, %108 ]
  %113 = phi i32 [ %116, %111 ], [ %110, %108 ]
  %114 = getelementptr inbounds [13 x i32], [13 x i32]* %1, i64 0, i64 %112
  %115 = load i32, i32* %114, align 4, !tbaa !5
  %116 = add nsw i32 %115, %113
  %117 = add nuw nsw i64 %112, 1
  %118 = icmp eq i64 %117, %19
  br i1 %118, label %119, label %111, !llvm.loop !15

119:                                              ; preds = %111, %18, %102, %0
  %120 = phi i32 [ 0, %0 ], [ 0, %18 ], [ %106, %102 ], [ %116, %111 ]
  %121 = load i32, i32* %4, align 4, !tbaa !5
  %122 = add nsw i32 %121, %120
  %123 = call i32 (i8*, ...) @printf(i8* nonnull dereferenceable(1) getelementptr inbounds ([3 x i8], [3 x i8]* @.str.1, i64 0, i64 0), i32 %122)
  call void @llvm.lifetime.end.p0i8(i64 4, i8* nonnull %14) #4
  call void @llvm.lifetime.end.p0i8(i64 4, i8* nonnull %13) #4
  call void @llvm.lifetime.end.p0i8(i64 4, i8* nonnull %12) #4
  call void @llvm.lifetime.end.p0i8(i64 52, i8* nonnull %5) #4
  ret i32 0
}

; Function Attrs: argmemonly mustprogress nofree nosync nounwind willreturn
declare void @llvm.lifetime.start.p0i8(i64 immarg, i8* nocapture) #1

; Function Attrs: nofree nounwind
declare noundef i32 @__isoc99_scanf(i8* nocapture noundef readonly, ...) local_unnamed_addr #2

; Function Attrs: nofree nounwind
declare noundef i32 @printf(i8* nocapture noundef readonly, ...) local_unnamed_addr #2

; Function Attrs: argmemonly mustprogress nofree nosync nounwind willreturn
declare void @llvm.lifetime.end.p0i8(i64 immarg, i8* nocapture) #1

; Function Attrs: nofree nosync nounwind readnone willreturn
declare i32 @llvm.vector.reduce.add.v4i32(<4 x i32>) #3


!llvm.module.flags = !{!0, !1, !2, !3}
!llvm.ident = !{!4}

!0 = !{i32 1, !"wchar_size", i32 4}
!1 = !{i32 7, !"PIC Level", i32 2}
!2 = !{i32 7, !"PIE Level", i32 2}
!3 = !{i32 7, !"uwtable", i32 1}
!4 = !{!"clang version 13.0.0"}
!5 = !{!6, !6, i64 0}
!6 = !{!"int", !7, i64 0}
!7 = !{!"omnipotent char", !8, i64 0}
!8 = !{!"Simple C/C++ TBAA"}
!9 = distinct !{!9, !10}
!10 = !{!"llvm.loop.mustprogress"}
!11 = distinct !{!11, !10, !12}
!12 = !{!"llvm.loop.isvectorized", i32 1}
!13 = distinct !{!13, !14}
!14 = !{!"llvm.loop.unroll.disable"}
!15 = distinct !{!15, !10, !16, !12}
!16 = !{!"llvm.loop.unroll.runtime.disable"}
